ccopy_reg
_reconstructor
p0
(csklearn.svm.classes
LinearSVC
p1
c__builtin__
object
p2
Ntp3
Rp4
(dp5
S'loss'
p6
S'squared_hinge'
p7
sS'C'
p8
F1.0
sS'intercept_scaling'
p9
I1
sS'verbose'
p10
I0
sS'fit_intercept'
p11
I01
sS'max_iter'
p12
I1000
sS'penalty'
p13
S'l2'
p14
sS'multi_class'
p15
S'ovr'
p16
sS'random_state'
p17
NsS'_sklearn_version'
p18
S'0.19.1'
p19
sS'dual'
p20
I01
sS'tol'
p21
F0.0001
sS'class_weight'
p22
Nsb.